target datalayout = "e-m:e-p270:32:32-p271:32:32-p272:64:64-i64:64-i128:128-f80:128-n8:16:32:64-S128"
target triple = "x86_64-pc-linux-gnu"

; Function Attrs: nounwind uwtable
define internal void @gather_double_1(ptr noundef %0, ptr noundef %1, i64 noundef %2) #0 {
  %4 = alloca ptr, align 8
  %5 = alloca ptr, align 8
  %6 = alloca i64, align 8
  %7 = alloca i32, align 4
  store ptr %0, ptr %4, align 8, !tbaa !8
  store ptr %1, ptr %5, align 8, !tbaa !8
  store i64 %2, ptr %6, align 8, !tbaa !24
  call void @llvm.lifetime.start.p0(i64 4, ptr %7) #7
  store i32 0, ptr %7, align 4, !tbaa !15
  br label %8

8:                                                ; preds = %16, %3
  %9 = load i32, ptr %7, align 4, !tbaa !15
  %10 = icmp ult i32 %9, 4
  br i1 %10, label %11, label %22

11:                                               ; preds = %8
  %12 = load ptr, ptr %5, align 8, !tbaa !8
  %13 = load double, ptr %12, align 8, !tbaa !20
  %14 = load ptr, ptr %4, align 8, !tbaa !8
  %15 = getelementptr inbounds nuw double, ptr %14, i32 1
  store ptr %15, ptr %4, align 8, !tbaa !8
  store double %13, ptr %14, align 8, !tbaa !20
  br label %16

16:                                               ; preds = %11
  %17 = load i32, ptr %7, align 4, !tbaa !15
  %18 = add i32 %17, 1
  store i32 %18, ptr %7, align 4, !tbaa !15
  %19 = load i64, ptr %6, align 8, !tbaa !24
  %20 = load ptr, ptr %5, align 8, !tbaa !8
  %21 = getelementptr inbounds double, ptr %20, i64 %19
  store ptr %21, ptr %5, align 8, !tbaa !8
  br label %8

22:                                               ; preds = %8
  call void @llvm.lifetime.end.p0(i64 4, ptr %7) #7
  ret void
}

; Function Attrs: nounwind uwtable
define i64 @zfp_encode_block_strided_double_1(ptr noundef %0, ptr noundef %1, i64 noundef %2) #0 {
  %4 = alloca ptr, align 8
  %5 = alloca ptr, align 8
  %6 = alloca i64, align 8
  %7 = alloca [4 x double], align 256
  store ptr %0, ptr %4, align 8, !tbaa !4
  store ptr %1, ptr %5, align 8, !tbaa !8
  store i64 %2, ptr %6, align 8, !tbaa !24
  call void @llvm.lifetime.start.p0(i64 32, ptr %7) #7
  %8 = getelementptr inbounds [4 x double], ptr %7, i64 0, i64 0
  %9 = load ptr, ptr %5, align 8, !tbaa !8
  %10 = load i64, ptr %6, align 8, !tbaa !24
  call void @gather_double_1(ptr noundef %8, ptr noundef %9, i64 noundef %10)
  %11 = load ptr, ptr %4, align 8, !tbaa !4
  %12 = getelementptr inbounds [4 x double], ptr %7, i64 0, i64 0
  %13 = call i64 @zfp_encode_block_double_1(ptr noundef %11, ptr noundef %12)
  call void @llvm.lifetime.end.p0(i64 32, ptr %7) #7
  ret i64 %13
}